; Function Attrs: mustprogress nofree norecurse nosync nounwind willreturn memory(read, inaccessiblemem: none) uwtable
define hidden noundef zeroext i1 @_ZNK4cvc58internal6String7strncmpERKS1_m(ptr nocapture noundef nonnull readonly align 8 dereferenceable(24) %this, ptr nocapture noundef nonnull readonly align 8 dereferenceable(24) %y, i64 noundef %n) local_unnamed_addr #4 align 2 {
entry:
  %_M_finish.i.i = getelementptr inbounds i8, ptr %this, i64 8
  %0 = load ptr, ptr %_M_finish.i.i, align 8
  %1 = load ptr, ptr %this, align 8
  %sub.ptr.lhs.cast.i.i = ptrtoint ptr %0 to i64
  %sub.ptr.rhs.cast.i.i = ptrtoint ptr %1 to i64
  %sub.ptr.sub.i.i = sub i64 %sub.ptr.lhs.cast.i.i, %sub.ptr.rhs.cast.i.i
  %sub.ptr.div.i.i = ashr exact i64 %sub.ptr.sub.i.i, 2
  %_M_finish.i.i11 = getelementptr inbounds i8, ptr %y, i64 8
  %2 = load ptr, ptr %_M_finish.i.i11, align 8
  %3 = load ptr, ptr %y, align 8
  %sub.ptr.lhs.cast.i.i12 = ptrtoint ptr %2 to i64
  %sub.ptr.rhs.cast.i.i13 = ptrtoint ptr %3 to i64
  %sub.ptr.sub.i.i14 = sub i64 %sub.ptr.lhs.cast.i.i12, %sub.ptr.rhs.cast.i.i13
  %sub.ptr.div.i.i15 = ashr exact i64 %sub.ptr.sub.i.i14, 2
  %cond13 = tail call i64 @llvm.umin.i64(i64 %sub.ptr.div.i.i, i64 %sub.ptr.div.i.i15)
  %cmp14 = icmp ult i64 %cond13, %n
  br i1 %cmp14, label %if.then, label %if.end17

if.then:                                          ; preds = %entry
  %cmp15 = icmp eq i64 %sub.ptr.div.i.i, %sub.ptr.div.i.i15
  br i1 %cmp15, label %if.end17, label %return

if.end17:                                         ; preds = %if.then, %entry
  %n.addr.0 = phi i64 [ %n, %entry ], [ %cond13, %if.then ]
  %cmp1847.not = icmp eq i64 %n.addr.0, 0
  br i1 %cmp1847.not, label %return, label %for.body

for.body:                                         ; preds = %if.end17, %for.body
  %i.048 = phi i64 [ %inc, %for.body ], [ 0, %if.end17 ]
  %add.ptr.i = getelementptr inbounds i32, ptr %1, i64 %i.048
  %4 = load i32, ptr %add.ptr.i, align 4
  %add.ptr.i46 = getelementptr inbounds i32, ptr %3, i64 %i.048
  %5 = load i32, ptr %add.ptr.i46, align 4
  %cmp22.not = icmp eq i32 %4, %5
  %inc = add nuw i64 %i.048, 1
  %exitcond.not = icmp ne i64 %inc, %n.addr.0
  %or.cond.not = select i1 %cmp22.not, i1 %exitcond.not, i1 false
  br i1 %or.cond.not, label %for.body, label %return, !llvm.loop !7

return:                                           ; preds = %for.body, %if.end17, %if.then
  %retval.0 = phi i1 [ false, %if.then ], [ true, %if.end17 ], [ %cmp22.not, %for.body ]
  ret i1 %retval.0
}